; Function Attrs: mustprogress ssp uwtable
define void @_ZNK6open3d4core7HashSet5CloneEv(ptr dead_on_unwind noalias writable sret(%"class.open3d::core::HashSet") align 8 %0, ptr noundef nonnull align 8 dereferenceable(24) %1) local_unnamed_addr #1 align 2 personality ptr @__gxx_personality_v0 {
  %3 = alloca %"class.open3d::core::HashMap", align 8
  %4 = alloca %"class.open3d::core::Device", align 8
  call void @llvm.lifetime.start.p0(i64 152, ptr nonnull %3) #19
  %5 = getelementptr inbounds nuw i8, ptr %1, i64 8
  %6 = load ptr, ptr %5, align 8, !tbaa !19
  call void @llvm.lifetime.start.p0(i64 8, ptr nonnull %4) #19
  %7 = load ptr, ptr %1, align 8, !tbaa !4
  %8 = getelementptr inbounds nuw i8, ptr %7, i64 16
  %9 = load ptr, ptr %8, align 8
  %10 = tail call i64 %9(ptr noundef nonnull align 8 dereferenceable(24) %1)
  store i64 %10, ptr %4, align 8
  call void @_ZNK6open3d4core7HashMap2ToERKNS0_6DeviceEb(ptr dead_on_unwind nonnull writable sret(%"class.open3d::core::HashMap") align 8 %3, ptr noundef nonnull align 8 dereferenceable(152) %6, ptr noundef nonnull align 4 dereferenceable(8) %4, i1 noundef zeroext true)
  call void @llvm.lifetime.end.p0(i64 8, ptr nonnull %4) #19
  invoke void @_ZN6open3d4core7HashSetC1ERKNS0_7HashMapE(ptr noundef nonnull align 8 dereferenceable(24) %0, ptr noundef nonnull align 8 dereferenceable(152) %3)
          to label %11 unwind label %12

11:                                               ; preds = %2
  call void @_ZN6open3d4core7HashMapD2Ev(ptr noundef nonnull align 8 dereferenceable(152) %3) #19
  call void @llvm.lifetime.end.p0(i64 152, ptr nonnull %3) #19
  ret void

12:                                               ; preds = %2
  %13 = landingpad { ptr, i32 }
          cleanup
  call void @_ZN6open3d4core7HashMapD2Ev(ptr noundef nonnull align 8 dereferenceable(152) %3) #19
  call void @llvm.lifetime.end.p0(i64 152, ptr nonnull %3) #19
  resume { ptr, i32 } %13
}